target datalayout = "e-m:e-p270:32:32-p271:32:32-p272:64:64-i64:64-i128:128-f80:128-n8:16:32:64-S128"
target triple = "x86_64-pc-linux-gnu"

%"class.pxrInternal_v0_24__pxrReserved__::TfToken" = type { %"class.pxrInternal_v0_24__pxrReserved__::TfPointerAndBits" }
%"class.pxrInternal_v0_24__pxrReserved__::TfPointerAndBits" = type { ptr }
%"class.pxrInternal_v0_24__pxrReserved__::TfType" = type { ptr }
%"class.std::__cxx11::basic_string" = type { %"struct.std::__cxx11::basic_string<char>::_Alloc_hider", i64, %union.anon }
%"struct.std::__cxx11::basic_string<char>::_Alloc_hider" = type { ptr }
%union.anon = type { i64, [8 x i8] }
%"struct.pxrInternal_v0_24__pxrReserved__::TfToken::_Rep" = type { %"struct.std::atomic.231", i32, i64, %"class.std::__cxx11::basic_string", ptr }
%"struct.std::atomic.231" = type { %"struct.std::__atomic_base.232" }
%"struct.std::__atomic_base.232" = type { i32 }
%"struct.pxrInternal_v0_24__pxrReserved__::UsdSchemaRegistry::SchemaInfo" = type { %"class.pxrInternal_v0_24__pxrReserved__::TfToken", %"class.pxrInternal_v0_24__pxrReserved__::TfType", %"class.pxrInternal_v0_24__pxrReserved__::TfToken", i32, i32 }

; Function Attrs: mustprogress nounwind uwtable
define linkonce_odr noundef i64 @_ZN32pxrInternal_v0_24__pxrReserved__16TfPointerAndBitsIKNS_7TfToken4_RepEE9_GetAlignEv() #1 comdat align 2 {
  ret i64 8
}

; Function Attrs: mustprogress nounwind uwtable
define linkonce_odr noundef i64 @_ZNK32pxrInternal_v0_24__pxrReserved__16TfPointerAndBitsIKNS_7TfToken4_RepEE11GetMaxValueEv(ptr noundef nonnull align 8 dereferenceable(8) %0) #1 comdat align 2 {
  %2 = alloca ptr, align 8
  store ptr %0, ptr %2, align 8
  %3 = call noundef i64 @_ZN32pxrInternal_v0_24__pxrReserved__16TfPointerAndBitsIKNS_7TfToken4_RepEE9_GetAlignEv() #7
  %4 = sub i64 %3, 1
  ret i64 %4
}

; Function Attrs: mustprogress nounwind uwtable
define linkonce_odr noundef ptr @_ZNK32pxrInternal_v0_24__pxrReserved__16TfPointerAndBitsIKNS_7TfToken4_RepEE8_CombineEPS3_m(ptr noundef nonnull align 8 dereferenceable(8) %0, ptr noundef %1, i64 noundef %2) #1 comdat align 2 {
  %4 = alloca ptr, align 8
  %5 = alloca ptr, align 8
  %6 = alloca i64, align 8
  store ptr %0, ptr %4, align 8
  store ptr %1, ptr %5, align 8
  store i64 %2, ptr %6, align 8
  %7 = load ptr, ptr %4, align 8
  %8 = load ptr, ptr %5, align 8
  %9 = call noundef i64 @_ZNK32pxrInternal_v0_24__pxrReserved__16TfPointerAndBitsIKNS_7TfToken4_RepEE6_AsIntEPS3_(ptr noundef nonnull align 8 dereferenceable(8) %7, ptr noundef %8) #7
  %10 = load i64, ptr %6, align 8
  %11 = call noundef i64 @_ZNK32pxrInternal_v0_24__pxrReserved__16TfPointerAndBitsIKNS_7TfToken4_RepEE11_GetBitMaskEv(ptr noundef nonnull align 8 dereferenceable(8) %7) #7
  %12 = and i64 %10, %11
  %13 = or i64 %9, %12
  %14 = call noundef ptr @_ZNK32pxrInternal_v0_24__pxrReserved__16TfPointerAndBitsIKNS_7TfToken4_RepEE6_AsPtrEm(ptr noundef nonnull align 8 dereferenceable(8) %7, i64 noundef %13) #7
  ret ptr %14
}

; Function Attrs: mustprogress nounwind uwtable
define linkonce_odr noundef ptr @_ZNK32pxrInternal_v0_24__pxrReserved__16TfPointerAndBitsIKNS_7TfToken4_RepEE6_AsPtrEm(ptr noundef nonnull align 8 dereferenceable(8) %0, i64 noundef %1) #1 comdat align 2 {
  %3 = alloca ptr, align 8
  %4 = alloca i64, align 8
  store ptr %0, ptr %3, align 8
  store i64 %1, ptr %4, align 8
  %5 = load i64, ptr %4, align 8
  %6 = inttoptr i64 %5 to ptr
  ret ptr %6
}

; Function Attrs: mustprogress nounwind uwtable
define linkonce_odr noundef i64 @_ZNK32pxrInternal_v0_24__pxrReserved__16TfPointerAndBitsIKNS_7TfToken4_RepEE11_GetBitMaskEv(ptr noundef nonnull align 8 dereferenceable(8) %0) #1 comdat align 2 personality ptr @__gxx_personality_v0 {
  %2 = alloca ptr, align 8
  store ptr %0, ptr %2, align 8
  %3 = load ptr, ptr %2, align 8
  %4 = invoke noundef i64 @_ZNK32pxrInternal_v0_24__pxrReserved__16TfPointerAndBitsIKNS_7TfToken4_RepEE11GetMaxValueEv(ptr noundef nonnull align 8 dereferenceable(8) %3)
          to label %5 unwind label %6

5:                                                ; preds = %1
  ret i64 %4

6:                                                ; preds = %1
  %7 = landingpad { ptr, i32 }
          catch ptr null
  %8 = extractvalue { ptr, i32 } %7, 0
  call void @__clang_call_terminate(ptr %8) #18
  unreachable
}

; Function Attrs: mustprogress nounwind uwtable
define linkonce_odr noundef i64 @_ZNK32pxrInternal_v0_24__pxrReserved__16TfPointerAndBitsIKNS_7TfToken4_RepEE6_AsIntEPS3_(ptr noundef nonnull align 8 dereferenceable(8) %0, ptr noundef %1) #1 comdat align 2 {
  %3 = alloca ptr, align 8
  %4 = alloca ptr, align 8
  store ptr %0, ptr %3, align 8
  store ptr %1, ptr %4, align 8
  %5 = load ptr, ptr %4, align 8
  %6 = ptrtoint ptr %5 to i64
  ret i64 %6
}

; Function Attrs: mustprogress nounwind uwtable
define linkonce_odr void @_ZN32pxrInternal_v0_24__pxrReserved__16TfPointerAndBitsIKNS_7TfToken4_RepEE8_SetBitsEm(ptr noundef nonnull align 8 dereferenceable(8) %0, i64 noundef %1) #1 comdat align 2 {
  %3 = alloca ptr, align 8
  %4 = alloca i64, align 8
  store ptr %0, ptr %3, align 8
  store i64 %1, ptr %4, align 8
  %5 = load ptr, ptr %3, align 8
  %6 = call noundef ptr @_ZNK32pxrInternal_v0_24__pxrReserved__16TfPointerAndBitsIKNS_7TfToken4_RepEE7_GetPtrEv(ptr noundef nonnull align 8 dereferenceable(8) %5) #7
  %7 = load i64, ptr %4, align 8
  %8 = call noundef ptr @_ZNK32pxrInternal_v0_24__pxrReserved__16TfPointerAndBitsIKNS_7TfToken4_RepEE8_CombineEPS3_m(ptr noundef nonnull align 8 dereferenceable(8) %5, ptr noundef %6, i64 noundef %7) #7
  %9 = getelementptr inbounds nuw %"class.pxrInternal_v0_24__pxrReserved__::TfPointerAndBits", ptr %5, i32 0, i32 0
  store ptr %8, ptr %9, align 8
  ret void
}

; Function Attrs: mustprogress nounwind uwtable
define linkonce_odr noundef ptr @_ZNK32pxrInternal_v0_24__pxrReserved__16TfPointerAndBitsIKNS_7TfToken4_RepEE7_GetPtrEv(ptr noundef nonnull align 8 dereferenceable(8) %0) #1 comdat align 2 {
  %2 = alloca ptr, align 8
  store ptr %0, ptr %2, align 8
  %3 = load ptr, ptr %2, align 8
  %4 = getelementptr inbounds nuw %"class.pxrInternal_v0_24__pxrReserved__::TfPointerAndBits", ptr %3, i32 0, i32 0
  %5 = load ptr, ptr %4, align 8
  %6 = call noundef i64 @_ZNK32pxrInternal_v0_24__pxrReserved__16TfPointerAndBitsIKNS_7TfToken4_RepEE6_AsIntEPS3_(ptr noundef nonnull align 8 dereferenceable(8) %3, ptr noundef %5) #7
  %7 = call noundef i64 @_ZNK32pxrInternal_v0_24__pxrReserved__16TfPointerAndBitsIKNS_7TfToken4_RepEE11_GetBitMaskEv(ptr noundef nonnull align 8 dereferenceable(8) %3) #7
  %8 = xor i64 %7, -1
  %9 = and i64 %6, %8
  %10 = call noundef ptr @_ZNK32pxrInternal_v0_24__pxrReserved__16TfPointerAndBitsIKNS_7TfToken4_RepEE6_AsPtrEm(ptr noundef nonnull align 8 dereferenceable(8) %3, i64 noundef %9) #7
  ret ptr %10
}

; Function Attrs: mustprogress nounwind uwtable
define linkonce_odr noundef i64 @_ZNK32pxrInternal_v0_24__pxrReserved__16TfPointerAndBitsIKNS_7TfToken4_RepEE8_GetBitsEv(ptr noundef nonnull align 8 dereferenceable(8) %0) #1 comdat align 2 {
  %2 = alloca ptr, align 8
  store ptr %0, ptr %2, align 8
  %3 = load ptr, ptr %2, align 8
  %4 = getelementptr inbounds nuw %"class.pxrInternal_v0_24__pxrReserved__::TfPointerAndBits", ptr %3, i32 0, i32 0
  %5 = load ptr, ptr %4, align 8
  %6 = call noundef i64 @_ZNK32pxrInternal_v0_24__pxrReserved__16TfPointerAndBitsIKNS_7TfToken4_RepEE6_AsIntEPS3_(ptr noundef nonnull align 8 dereferenceable(8) %3, ptr noundef %5) #7
  %7 = call noundef i64 @_ZNK32pxrInternal_v0_24__pxrReserved__16TfPointerAndBitsIKNS_7TfToken4_RepEE11_GetBitMaskEv(ptr noundef nonnull align 8 dereferenceable(8) %3) #7
  %8 = and i64 %6, %7
  ret i64 %8
}

; Function Attrs: mustprogress nounwind uwtable
define linkonce_odr void @_ZN32pxrInternal_v0_24__pxrReserved__16TfPointerAndBitsIKNS_7TfToken4_RepEE7SetBitsIbEEvT_(ptr noundef nonnull align 8 dereferenceable(8) %0, i1 noundef zeroext %1) #1 comdat align 2 {
  %3 = alloca ptr, align 8
  %4 = alloca i8, align 1
  store ptr %0, ptr %3, align 8
  %5 = zext i1 %1 to i8
  store i8 %5, ptr %4, align 1
  %6 = load ptr, ptr %3, align 8
  %7 = load i8, ptr %4, align 1
  %8 = trunc i8 %7 to i1
  %9 = zext i1 %8 to i64
  call void @_ZN32pxrInternal_v0_24__pxrReserved__16TfPointerAndBitsIKNS_7TfToken4_RepEE8_SetBitsEm(ptr noundef nonnull align 8 dereferenceable(8) %6, i64 noundef %9) #7
  ret void
}

; Function Attrs: mustprogress nounwind uwtable
define linkonce_odr noundef zeroext i1 @_ZNK32pxrInternal_v0_24__pxrReserved__7TfToken4_Rep24IncrementAndCheckCountedEv(ptr noundef nonnull align 8 dereferenceable(56) %0) #1 comdat align 2 {
  %2 = alloca ptr, align 8
  %3 = alloca i32, align 4
  %4 = alloca i32, align 4
  %5 = alloca i32, align 4
  %6 = alloca i32, align 4
  %7 = alloca ptr, align 8
  store ptr %0, ptr %7, align 8
  %8 = load ptr, ptr %7, align 8
  %9 = getelementptr inbounds nuw %"struct.pxrInternal_v0_24__pxrReserved__::TfToken::_Rep", ptr %8, i32 0, i32 0
  store ptr %9, ptr %2, align 8
  store i32 2, ptr %3, align 4
  store i32 0, ptr %4, align 4
  %10 = load ptr, ptr %2, align 8
  %11 = load i32, ptr %4, align 4
  %12 = load i32, ptr %3, align 4
  store i32 %12, ptr %5, align 4
  switch i32 %11, label %13 [
    i32 1, label %16
    i32 2, label %16
    i32 3, label %19
    i32 4, label %22
    i32 5, label %25
  ]

13:                                               ; preds = %1
  %14 = load i32, ptr %5, align 4
  %15 = atomicrmw add ptr %10, i32 %14 monotonic, align 4
  store i32 %15, ptr %6, align 4
  br label %28

16:                                               ; preds = %1, %1
  %17 = load i32, ptr %5, align 4
  %18 = atomicrmw add ptr %10, i32 %17 acquire, align 4
  store i32 %18, ptr %6, align 4
  br label %28

19:                                               ; preds = %1
  %20 = load i32, ptr %5, align 4
  %21 = atomicrmw add ptr %10, i32 %20 release, align 4
  store i32 %21, ptr %6, align 4
  br label %28

22:                                               ; preds = %1
  %23 = load i32, ptr %5, align 4
  %24 = atomicrmw add ptr %10, i32 %23 acq_rel, align 4
  store i32 %24, ptr %6, align 4
  br label %28

25:                                               ; preds = %1
  %26 = load i32, ptr %5, align 4
  %27 = atomicrmw add ptr %10, i32 %26 seq_cst, align 4
  store i32 %27, ptr %6, align 4
  br label %28

28:                                               ; preds = %25, %22, %19, %16, %13
  %29 = load i32, ptr %6, align 4
  %30 = and i32 %29, 1
  %31 = icmp ne i32 %30, 0
  ret i1 %31
}

; Function Attrs: mustprogress nounwind uwtable
define linkonce_odr noundef ptr @_ZNK32pxrInternal_v0_24__pxrReserved__16TfPointerAndBitsIKNS_7TfToken4_RepEEptEv(ptr noundef nonnull align 8 dereferenceable(8) %0) #1 comdat align 2 {
  %2 = alloca ptr, align 8
  store ptr %0, ptr %2, align 8
  %3 = load ptr, ptr %2, align 8
  %4 = call noundef ptr @_ZNK32pxrInternal_v0_24__pxrReserved__16TfPointerAndBitsIKNS_7TfToken4_RepEE7_GetPtrEv(ptr noundef nonnull align 8 dereferenceable(8) %3) #7
  ret ptr %4
}

; Function Attrs: mustprogress nounwind uwtable
define linkonce_odr noundef zeroext i1 @_ZNK32pxrInternal_v0_24__pxrReserved__16TfPointerAndBitsIKNS_7TfToken4_RepEE6BitsAsIbEET_v(ptr noundef nonnull align 8 dereferenceable(8) %0) #1 comdat align 2 {
  %2 = alloca ptr, align 8
  store ptr %0, ptr %2, align 8
  %3 = load ptr, ptr %2, align 8
  %4 = call noundef i64 @_ZNK32pxrInternal_v0_24__pxrReserved__16TfPointerAndBitsIKNS_7TfToken4_RepEE8_GetBitsEv(ptr noundef nonnull align 8 dereferenceable(8) %3) #7
  %5 = icmp ne i64 %4, 0
  ret i1 %5
}

; Function Attrs: mustprogress nounwind uwtable
define linkonce_odr void @_ZN32pxrInternal_v0_24__pxrReserved__16TfPointerAndBitsIKNS_7TfToken4_RepEEC2Ev(ptr noundef nonnull align 8 dereferenceable(8) %0) unnamed_addr #1 comdat align 2 {
  %2 = alloca ptr, align 8
  store ptr %0, ptr %2, align 8
  %3 = load ptr, ptr %2, align 8
  %4 = getelementptr inbounds nuw %"class.pxrInternal_v0_24__pxrReserved__::TfPointerAndBits", ptr %3, i32 0, i32 0
  store ptr null, ptr %4, align 8
  ret void
}

; Function Attrs: noreturn nounwind uwtable
define linkonce_odr hidden void @__clang_call_terminate(ptr noundef %0) #10 comdat {
  %2 = call ptr @__cxa_begin_catch(ptr %0) #7
  call void @_ZSt9terminatev() #18
  unreachable
}

; Function Attrs: mustprogress uwtable
define linkonce_odr void @_ZNK32pxrInternal_v0_24__pxrReserved__7TfToken7_AddRefEv(ptr noundef nonnull align 8 dereferenceable(8) %0) #0 comdat align 2 {
  %2 = alloca ptr, align 8
  store ptr %0, ptr %2, align 8
  %3 = load ptr, ptr %2, align 8
  %4 = getelementptr inbounds nuw %"class.pxrInternal_v0_24__pxrReserved__::TfToken", ptr %3, i32 0, i32 0
  %5 = call noundef zeroext i1 @_ZNK32pxrInternal_v0_24__pxrReserved__16TfPointerAndBitsIKNS_7TfToken4_RepEE6BitsAsIbEET_v(ptr noundef nonnull align 8 dereferenceable(8) %4) #7
  br i1 %5, label %7, label %6

6:                                                ; preds = %1
  br label %13

7:                                                ; preds = %1
  %8 = getelementptr inbounds nuw %"class.pxrInternal_v0_24__pxrReserved__::TfToken", ptr %3, i32 0, i32 0
  %9 = call noundef ptr @_ZNK32pxrInternal_v0_24__pxrReserved__16TfPointerAndBitsIKNS_7TfToken4_RepEEptEv(ptr noundef nonnull align 8 dereferenceable(8) %8) #7
  %10 = call noundef zeroext i1 @_ZNK32pxrInternal_v0_24__pxrReserved__7TfToken4_Rep24IncrementAndCheckCountedEv(ptr noundef nonnull align 8 dereferenceable(56) %9)
  br i1 %10, label %13, label %11

11:                                               ; preds = %7
  %12 = getelementptr inbounds nuw %"class.pxrInternal_v0_24__pxrReserved__::TfToken", ptr %3, i32 0, i32 0
  call void @_ZN32pxrInternal_v0_24__pxrReserved__16TfPointerAndBitsIKNS_7TfToken4_RepEE7SetBitsIbEEvT_(ptr noundef nonnull align 8 dereferenceable(8) %12, i1 noundef zeroext false) #7
  br label %13

13:                                               ; preds = %11, %7, %6
  ret void
}

; Function Attrs: mustprogress nounwind uwtable
define linkonce_odr void @_ZN32pxrInternal_v0_24__pxrReserved__7TfTokenC2Ev(ptr noundef nonnull align 8 dereferenceable(8) %0) unnamed_addr #1 comdat align 2 {
  %2 = alloca ptr, align 8
  store ptr %0, ptr %2, align 8
  %3 = load ptr, ptr %2, align 8
  %4 = getelementptr inbounds nuw %"class.pxrInternal_v0_24__pxrReserved__::TfToken", ptr %3, i32 0, i32 0
  call void @_ZN32pxrInternal_v0_24__pxrReserved__16TfPointerAndBitsIKNS_7TfToken4_RepEEC2Ev(ptr noundef nonnull align 8 dereferenceable(8) %4) #7
  ret void
}

; Function Attrs: mustprogress nounwind uwtable
define linkonce_odr void @_ZN32pxrInternal_v0_24__pxrReserved__7TfTokenC2ERKS0_(ptr noundef nonnull align 8 dereferenceable(8) %0, ptr noundef nonnull align 8 dereferenceable(8) %1) unnamed_addr #1 comdat align 2 personality ptr @__gxx_personality_v0 {
  %3 = alloca ptr, align 8
  %4 = alloca ptr, align 8
  store ptr %0, ptr %3, align 8
  store ptr %1, ptr %4, align 8
  %5 = load ptr, ptr %3, align 8
  %6 = getelementptr inbounds nuw %"class.pxrInternal_v0_24__pxrReserved__::TfToken", ptr %5, i32 0, i32 0
  %7 = load ptr, ptr %4, align 8
  %8 = getelementptr inbounds nuw %"class.pxrInternal_v0_24__pxrReserved__::TfToken", ptr %7, i32 0, i32 0
  call void @llvm.memcpy.p0.p0.i64(ptr align 8 %6, ptr align 8 %8, i64 8, i1 false)
  invoke void @_ZNK32pxrInternal_v0_24__pxrReserved__7TfToken7_AddRefEv(ptr noundef nonnull align 8 dereferenceable(8) %5)
          to label %9 unwind label %10

9:                                                ; preds = %2
  ret void

10:                                               ; preds = %2
  %11 = landingpad { ptr, i32 }
          catch ptr null
  %12 = extractvalue { ptr, i32 } %11, 0
  call void @__clang_call_terminate(ptr %12) #18
  unreachable
}

; Function Attrs: mustprogress nounwind uwtable
define internal noundef zeroext i1 @_ZN32pxrInternal_v0_24__pxrReserved__L21_IsConcreteSchemaKindENS_13UsdSchemaKindE(i32 noundef %0) #1 {
  %2 = alloca i32, align 4
  store i32 %0, ptr %2, align 4
  %3 = load i32, ptr %2, align 4
  %4 = icmp eq i32 %3, 3
  ret i1 %4
}

; Function Attrs: mustprogress uwtable
define void @_ZN32pxrInternal_v0_24__pxrReserved__17UsdSchemaRegistry25GetConcreteSchemaTypeNameERKNS_6TfTypeE(ptr dead_on_unwind noalias writable sret(%"class.pxrInternal_v0_24__pxrReserved__::TfToken") align 8 %0, ptr noundef nonnull align 8 dereferenceable(8) %1) #0 align 2 {
  %3 = alloca ptr, align 8
  %4 = alloca ptr, align 8
  %5 = alloca ptr, align 8
  store ptr %0, ptr %3, align 8
  store ptr %1, ptr %4, align 8
  %6 = load ptr, ptr %4, align 8
  %7 = call noundef ptr @_ZN32pxrInternal_v0_24__pxrReserved__17UsdSchemaRegistry14FindSchemaInfoERKNS_6TfTypeE(ptr noundef nonnull align 8 dereferenceable(8) %6)
  store ptr %7, ptr %5, align 8
  %8 = load ptr, ptr %5, align 8
  %9 = icmp ne ptr %8, null
  br i1 %9, label %10, label %18

10:                                               ; preds = %2
  %11 = load ptr, ptr %5, align 8
  %12 = getelementptr inbounds nuw %"struct.pxrInternal_v0_24__pxrReserved__::UsdSchemaRegistry::SchemaInfo", ptr %11, i32 0, i32 4
  %13 = load i32, ptr %12, align 4
  %14 = call noundef zeroext i1 @_ZN32pxrInternal_v0_24__pxrReserved__L21_IsConcreteSchemaKindENS_13UsdSchemaKindE(i32 noundef %13)
  br i1 %14, label %15, label %18

15:                                               ; preds = %10
  %16 = load ptr, ptr %5, align 8
  %17 = getelementptr inbounds nuw %"struct.pxrInternal_v0_24__pxrReserved__::UsdSchemaRegistry::SchemaInfo", ptr %16, i32 0, i32 0
  call void @_ZN32pxrInternal_v0_24__pxrReserved__7TfTokenC2ERKS0_(ptr noundef nonnull align 8 dereferenceable(8) %0, ptr noundef nonnull align 8 dereferenceable(8) %17) #7
  br label %19

18:                                               ; preds = %10, %2
  call void @llvm.memset.p0.i64(ptr align 8 %0, i8 0, i64 8, i1 false)
  call void @_ZN32pxrInternal_v0_24__pxrReserved__7TfTokenC2Ev(ptr noundef nonnull align 8 dereferenceable(8) %0) #7
  br label %19

19:                                               ; preds = %18, %15
  ret void
}